Certificate:
    Data:
        Version: 3 (0x2)
        Serial Number: 1 (0x1)
    Signature Algorithm: sha256WithRSAEncryption
        Issuer: O=Contrail, CN=contrail-ansible
        Validity
            Not Before: Sep 15 22:22:37 2020 GMT
            Not After : Sep 15 22:22:37 2021 GMT
        Subject: C=US, ST=CA, O=JuniperNetworks, OU=JuniperCA, CN=Contrail, L=Sunnyvale
        Subject Public Key Info:
            Public Key Algorithm: rsaEncryption
                Public-Key: (2048 bit)
                Modulus:
                    00:ce:c0:63:85:60:42:20:d9:f2:04:74:85:50:96:
                    c7:8d:f7:5f:79:49:02:2b:d4:30:dd:b0:34:3e:aa:
                    6c:e9:14:e7:74:da:b5:6b:4a:48:36:bf:c3:00:c1:
                    c5:f5:fd:f0:db:9a:bd:1c:f4:07:67:7d:a8:6e:4a:
                    6b:a3:40:68:74:49:da:4a:cb:93:5f:70:cd:f6:7f:
                    30:ca:01:72:21:02:34:03:1c:3e:60:d1:b1:6e:06:
                    e7:ed:88:c0:48:76:16:cb:93:7e:67:7a:6c:76:9b:
                    29:95:54:cc:ab:ff:aa:d0:91:d2:b5:fb:59:91:b6:
                    57:7d:c8:7d:68:bc:69:2f:79:67:6c:aa:91:bc:6f:
                    3b:c6:d1:db:92:e4:c9:51:a6:65:fd:62:6c:a7:ec:
                    27:43:bc:e2:f9:31:9f:01:2b:5a:f8:fa:e7:52:e8:
                    c7:80:b0:cf:eb:92:0d:3e:cc:a0:14:ff:8f:76:23:
                    49:3e:57:ed:66:ca:d1:72:f0:b2:a8:c5:8e:19:12:
                    ad:c5:af:3e:0f:b8:4e:fa:15:7b:a7:d1:85:a8:90:
                    05:ae:82:f5:87:5a:21:b2:18:13:ed:7f:24:20:e2:
                    13:42:44:fc:e4:b2:0f:7f:5e:fb:4c:d9:8d:3a:c3:
                    29:9e:c3:66:2b:40:f0:03:62:2b:04:2f:f4:e2:02:
                    bd:f5
                Exponent: 65537 (0x10001)
        X509v3 extensions:
            X509v3 Basic Constraints: 
                CA:FALSE
            X509v3 Key Usage: 
                Digital Signature, Non Repudiation, Key Encipherment
            X509v3 Subject Alternative Name: 
                DNS:5c1s5-node2.englab.juniper.net, DNS:5c1s5-node2, IP Address:10.87.110.100, IP Address:10.87.70.10, IP Address:172.17.0.1, IP Address:192.168.10.10
    Signature Algorithm: sha256WithRSAEncryption
         64:8b:dc:e1:84:db:59:a5:f2:fd:91:ce:2e:95:88:08:fa:9f:
         05:0a:ce:a8:75:f3:12:e7:3a:62:79:85:d6:fb:52:30:4b:c9:
         f9:a3:95:c1:18:05:65:20:25:46:58:d9:52:48:5f:70:1f:07:
         dd:a1:5c:c6:82:76:d4:74:c9:9d:21:9a:8c:2a:14:81:54:ad:
         cc:8d:f4:9e:46:c2:28:5b:95:ba:fc:22:f8:ff:13:5c:53:78:
         83:76:a7:13:7d:d3:78:62:ef:c1:37:8e:ec:ac:99:81:ec:49:
         b9:64:15:97:75:33:6b:87:35:ac:8d:b9:83:ac:fa:91:0a:68:
         0d:51:8f:70:82:8c:f0:22:c4:c9:e0:39:80:b1:c6:5f:3a:bd:
         cc:60:d9:98:5f:a2:1d:00:73:68:3d:67:14:83:3e:4b:c4:48:
         ef:e3:0c:29:00:c6:85:03:77:b9:02:ea:5f:03:fc:c3:9e:e3:
         8e:09:17:8c:ae:51:ce:4b:8f:47:ea:60:a4:6d:fa:fd:d0:18:
         43:f1:00:10:0b:e1:84:ec:85:37:80:72:62:5b:a6:29:0d:29:
         55:e4:3b:a0:7e:2d:5c:b5:7b:6e:e8:97:a5:20:ec:da:18:df:
         61:a7:d9:2a:5d:45:a5:fc:60:bd:28:1d:96:da:db:06:31:b9:
         d9:5e:6f:75:c6:68:7d:91:29:d1:5a:90:b2:48:e0:67:ff:e1:
         d5:31:84:a2:fd:a7:a7:63:20:49:ce:0d:5b:40:b7:d6:cb:04:
         85:2c:eb:04:82:ea:ca:97:eb:67:c7:f7:3a:4e:d2:a1:2b:e7:
         f7:17:f8:4e:06:45:98:5e:43:dd:1a:a3:8a:1a:06:45:72:63:
         89:f5:4b:ee:fb:f5:09:92:1f:4d:46:45:9c:2d:54:39:20:5e:
         5c:0f:01:2c:9f:88:66:ce:82:a0:af:95:95:af:58:6d:44:d7:
         c9:4c:97:24:58:67:eb:21:15:39:33:10:a1:bd:85:68:bc:10:
         a6:1c:28:56:6c:5c:32:58:61:38:de:74:dd:31:bf:a1:f1:2e:
         1a:bf:2d:ce:84:d6:e5:d4:7a:a8:8d:de:73:4a:df:1c:f3:b0:
         20:48:68:ca:39:2f:3f:22:4b:06:06:88:50:7b:52:fc:ac:fc:
         41:b7:ff:78:56:ab:8e:6f:7f:6a:70:4c:b7:6d:26:30:8c:d0:
         c7:13:0d:b9:1c:2d:34:a8:19:ca:aa:54:d6:04:5d:76:55:d8:
         0e:f8:fd:6a:de:cf:d3:18:17:d6:f9:46:a2:88:15:51:5e:62:
         a5:98:37:e6:3d:bf:7d:a9:8e:65:ba:3b:2e:f4:10:82:2a:e7:
         d5:4c:d1:5b:cc:b9:dc:c3
-----BEGIN CERTIFICATE-----
MIIEgjCCAmqgAwIBAgIBATANBgkqhkiG9w0BAQsFADAuMREwDwYDVQQKDAhDb250
cmFpbDEZMBcGA1UEAwwQY29udHJhaWwtYW5zaWJsZTAeFw0yMDA5MTUyMjIyMzda
Fw0yMTA5MTUyMjIyMzdaMG8xCzAJBgNVBAYTAlVTMQswCQYDVQQIDAJDQTEYMBYG
A1UECgwPSnVuaXBlck5ldHdvcmtzMRIwEAYDVQQLDAlKdW5pcGVyQ0ExETAPBgNV
BAMMCENvbnRyYWlsMRIwEAYDVQQHDAlTdW5ueXZhbGUwggEiMA0GCSqGSIb3DQEB
AQUAA4IBDwAwggEKAoIBAQDOwGOFYEIg2fIEdIVQlseN9195SQIr1DDdsDQ+qmzp
FOd02rVrSkg2v8MAwcX1/fDbmr0c9AdnfahuSmujQGh0SdpKy5NfcM32fzDKAXIh
AjQDHD5g0bFuBuftiMBIdhbLk35nemx2mymVVMyr/6rQkdK1+1mRtld9yH1ovGkv
eWdsqpG8bzvG0duS5MlRpmX9Ymyn7CdDvOL5MZ8BK1r4+udS6MeAsM/rkg0+zKAU
/492I0k+V+1mytFy8LKoxY4ZEq3Frz4PuE76FXun0YWokAWugvWHWiGyGBPtfyQg
4hNCRPzksg9/XvtM2Y06wymew2YrQPADYisEL/TiAr31AgMBAAGjajBoMAkGA1Ud
EwQCMAAwCwYDVR0PBAQDAgXgME4GA1UdEQRHMEWCHjVjMXM1LW5vZGUyLmVuZ2xh
Yi5qdW5pcGVyLm5ldIILNWMxczUtbm9kZTKHBApXbmSHBApXRgqHBKwRAAGHBMCo
CgowDQYJKoZIhvcNAQELBQADggIBAGSL3OGE21ml8v2Rzi6ViAj6nwUKzqh18xLn
OmJ5hdb7UjBLyfmjlcEYBWUgJUZY2VJIX3AfB92hXMaCdtR0yZ0hmowqFIFUrcyN
9J5Gwihblbr8Ivj/E1xTeIN2pxN903hi78E3juysmYHsSblkFZd1M2uHNayNuYOs
+pEKaA1Rj3CCjPAixMngOYCxxl86vcxg2Zhfoh0Ac2g9ZxSDPkvESO/jDCkAxoUD
d7kC6l8D/MOe444JF4yuUc5Lj0fqYKRt+v3QGEPxABAL4YTshTeAcmJbpikNKVXk
O6B+LVy1e27ol6Ug7NoY32Gn2SpdRaX8YL0oHZba2wYxudleb3XGaH2RKdFakLJI
4Gf/4dUxhKL9p6djIEnODVtAt9bLBIUs6wSC6sqX62fH9zpO0qEr5/cX+E4GRZhe
Q90ao4oaBkVyY4n1S+779QmSH01GRZwtVDkgXlwPASyfiGbOgqCvlZWvWG1E18lM
lyRYZ+shFTkzEKG9hWi8EKYcKFZsXDJYYTjedN0xv6HxLhq/Lc6E1uXUeqiN3nNK
3xzzsCBIaMo5Lz8iSwYGiFB7Uvys/EG3/3hWq45vf2pwTLdtJjCM0McTDbkcLTSo
GcqqVNYEXXZV2A74/Wrez9MYF9b5RqKIFVFeYqWYN+Y9v32pjmW6Oy70EIIq59VM
0VvMudzD
-----END CERTIFICATE-----
